target datalayout = "e-m:e-p270:32:32-p271:32:32-p272:64:64-i64:64-i128:128-f80:128-n8:16:32:64-S128"
target triple = "x86_64-pc-linux-gnu"

%struct.FxuHeapSingle = type { ptr, i32, i32, i32 }
%struct.FxuSingle = type { i32, i32, i32, ptr, ptr, ptr, ptr }

; Function Attrs: nounwind uwtable
define void @Fxu_HeapSingleDelete(ptr noundef %0, ptr noundef %1) #0 {
  %3 = alloca ptr, align 8
  %4 = alloca ptr, align 8
  %5 = alloca i32, align 4
  store ptr %0, ptr %3, align 8, !tbaa !3
  store ptr %1, ptr %4, align 8, !tbaa !14
  call void @llvm.lifetime.start.p0(i64 4, ptr %5) #6
  %6 = load ptr, ptr %4, align 8, !tbaa !14
  %7 = getelementptr inbounds nuw %struct.FxuSingle, ptr %6, i32 0, i32 1
  %8 = load i32, ptr %7, align 4, !tbaa !26
  store i32 %8, ptr %5, align 4, !tbaa !16
  %9 = load ptr, ptr %3, align 8, !tbaa !3
  %10 = getelementptr inbounds nuw %struct.FxuHeapSingle, ptr %9, i32 0, i32 0
  %11 = load ptr, ptr %10, align 8, !tbaa !13
  %12 = load ptr, ptr %3, align 8, !tbaa !3
  %13 = getelementptr inbounds nuw %struct.FxuHeapSingle, ptr %12, i32 0, i32 1
  %14 = load i32, ptr %13, align 8, !tbaa !8
  %15 = add nsw i32 %14, -1
  store i32 %15, ptr %13, align 8, !tbaa !8
  %16 = sext i32 %14 to i64
  %17 = getelementptr inbounds ptr, ptr %11, i64 %16
  %18 = load ptr, ptr %17, align 8, !tbaa !14
  %19 = load ptr, ptr %3, align 8, !tbaa !3
  %20 = getelementptr inbounds nuw %struct.FxuHeapSingle, ptr %19, i32 0, i32 0
  %21 = load ptr, ptr %20, align 8, !tbaa !13
  %22 = load i32, ptr %5, align 4, !tbaa !16
  %23 = sext i32 %22 to i64
  %24 = getelementptr inbounds ptr, ptr %21, i64 %23
  store ptr %18, ptr %24, align 8, !tbaa !14
  %25 = load i32, ptr %5, align 4, !tbaa !16
  %26 = load ptr, ptr %3, align 8, !tbaa !3
  %27 = getelementptr inbounds nuw %struct.FxuHeapSingle, ptr %26, i32 0, i32 0
  %28 = load ptr, ptr %27, align 8, !tbaa !13
  %29 = load i32, ptr %5, align 4, !tbaa !16
  %30 = sext i32 %29 to i64
  %31 = getelementptr inbounds ptr, ptr %28, i64 %30
  %32 = load ptr, ptr %31, align 8, !tbaa !14
  %33 = getelementptr inbounds nuw %struct.FxuSingle, ptr %32, i32 0, i32 1
  store i32 %25, ptr %33, align 4, !tbaa !26
  %34 = load ptr, ptr %3, align 8, !tbaa !3
  %35 = load ptr, ptr %3, align 8, !tbaa !3
  %36 = getelementptr inbounds nuw %struct.FxuHeapSingle, ptr %35, i32 0, i32 0
  %37 = load ptr, ptr %36, align 8, !tbaa !13
  %38 = load i32, ptr %5, align 4, !tbaa !16
  %39 = sext i32 %38 to i64
  %40 = getelementptr inbounds ptr, ptr %37, i64 %39
  %41 = load ptr, ptr %40, align 8, !tbaa !14
  call void @Fxu_HeapSingleUpdate(ptr noundef %34, ptr noundef %41)
  %42 = load ptr, ptr %4, align 8, !tbaa !14
  %43 = getelementptr inbounds nuw %struct.FxuSingle, ptr %42, i32 0, i32 1
  store i32 0, ptr %43, align 4, !tbaa !26
  call void @llvm.lifetime.end.p0(i64 4, ptr %5) #6
  ret void
}