; Function Attrs: nofree norecurse nosync nounwind memory(readwrite, inaccessiblemem: none) uwtable
define void @Fxu_HeapSingleDelete(ptr noundef captures(none) %0, ptr noundef captures(none) %1) local_unnamed_addr #9 {
  %3 = getelementptr inbounds nuw i8, ptr %1, i64 4
  %4 = load i32, ptr %3, align 4, !tbaa !21
  %5 = load ptr, ptr %0, align 8, !tbaa !10
  %6 = getelementptr inbounds nuw i8, ptr %0, i64 8
  %7 = load i32, ptr %6, align 8, !tbaa !13
  %8 = add nsw i32 %7, -1
  store i32 %8, ptr %6, align 8, !tbaa !13
  %9 = sext i32 %7 to i64
  %10 = getelementptr inbounds ptr, ptr %5, i64 %9
  %11 = load ptr, ptr %10, align 8, !tbaa !11
  %12 = sext i32 %4 to i64
  %13 = getelementptr inbounds ptr, ptr %5, i64 %12
  store ptr %11, ptr %13, align 8, !tbaa !11
  %14 = getelementptr inbounds nuw i8, ptr %11, i64 4
  store i32 %4, ptr %14, align 4, !tbaa !21
  tail call void @Fxu_HeapSingleUpdate(ptr noundef nonnull %0, ptr noundef %11)
  store i32 0, ptr %3, align 4, !tbaa !21
  ret void
}